; Function Attrs: mustprogress uwtable
define noundef ptr @_ZN6icu_7521NumsysNameEnumeration5snextER10UErrorCode(ptr nocapture noundef nonnull align 8 dereferenceable(120) %this, ptr nocapture noundef nonnull readonly align 4 dereferenceable(4) %status) unnamed_addr #1 align 2 {
entry:
  %0 = load i32, ptr %status, align 4
  %cmp.i = icmp slt i32 %0, 1
  %1 = load ptr, ptr @_ZN6icu_7512_GLOBAL__N_112gNumsysNamesE, align 8
  %cmp = icmp ne ptr %1, null
  %or.cond = select i1 %cmp.i, i1 %cmp, i1 false
  br i1 %or.cond, label %land.lhs.true2, label %return

land.lhs.true2:                                   ; preds = %entry
  %pos = getelementptr inbounds i8, ptr %this, i64 116
  %2 = load i32, ptr %pos, align 4
  %count.i = getelementptr inbounds i8, ptr %1, i64 8
  %3 = load i32, ptr %count.i, align 8
  %cmp4 = icmp slt i32 %2, %3
  br i1 %cmp4, label %if.then, label %return

if.then:                                          ; preds = %land.lhs.true2
  %inc = add nsw i32 %2, 1
  store i32 %inc, ptr %pos, align 4
  %call6 = tail call noundef ptr @_ZNK6icu_757UVector9elementAtEi(ptr noundef nonnull align 8 dereferenceable(40) %1, i32 noundef %2)
  br label %return

return:                                           ; preds = %entry, %land.lhs.true2, %if.then
  %retval.0 = phi ptr [ %call6, %if.then ], [ null, %land.lhs.true2 ], [ null, %entry ]
  ret ptr %retval.0
}